target datalayout = "e-m:e-p270:32:32-p271:32:32-p272:64:64-i64:64-i128:128-f80:128-n8:16:32:64-S128"
target triple = "x86_64-pc-linux-gnu"

%struct.pack_list = type { ptr, ptr, ptr, ptr, i64 }

; Function Attrs: nounwind uwtable
define internal ptr @pack_list_difference(ptr noundef %0, ptr noundef %1) #0 {
  %3 = alloca ptr, align 8
  %4 = alloca ptr, align 8
  %5 = alloca ptr, align 8
  %6 = alloca ptr, align 8
  %7 = alloca ptr, align 8
  %8 = alloca i32, align 4
  store ptr %0, ptr %4, align 8, !tbaa !15
  store ptr %1, ptr %5, align 8, !tbaa !15
  call void @llvm.lifetime.start.p0(i64 8, ptr %6) #9
  call void @llvm.lifetime.start.p0(i64 8, ptr %7) #9
  %9 = load ptr, ptr %4, align 8, !tbaa !15
  %10 = icmp ne ptr %9, null
  br i1 %10, label %12, label %11

11:                                               ; preds = %2
  store ptr null, ptr %3, align 8
  store i32 1, ptr %8, align 4
  br label %47

12:                                               ; preds = %2
  %13 = load ptr, ptr %5, align 8, !tbaa !15
  store ptr %13, ptr %7, align 8, !tbaa !15
  br label %14

14:                                               ; preds = %31, %12
  %15 = load ptr, ptr %7, align 8, !tbaa !15
  %16 = icmp ne ptr %15, null
  br i1 %16, label %17, label %35

17:                                               ; preds = %14
  %18 = load ptr, ptr %4, align 8, !tbaa !15
  %19 = getelementptr inbounds nuw %struct.pack_list, ptr %18, i32 0, i32 1
  %20 = load ptr, ptr %19, align 8, !tbaa !32
  %21 = load ptr, ptr %7, align 8, !tbaa !15
  %22 = getelementptr inbounds nuw %struct.pack_list, ptr %21, i32 0, i32 1
  %23 = load ptr, ptr %22, align 8, !tbaa !32
  %24 = icmp eq ptr %20, %23
  br i1 %24, label %25, label %31

25:                                               ; preds = %17
  %26 = load ptr, ptr %4, align 8, !tbaa !15
  %27 = getelementptr inbounds nuw %struct.pack_list, ptr %26, i32 0, i32 0
  %28 = load ptr, ptr %27, align 8, !tbaa !30
  %29 = load ptr, ptr %5, align 8, !tbaa !15
  %30 = call ptr @pack_list_difference(ptr noundef %28, ptr noundef %29)
  store ptr %30, ptr %3, align 8
  store i32 1, ptr %8, align 4
  br label %47

31:                                               ; preds = %17
  %32 = load ptr, ptr %7, align 8, !tbaa !15
  %33 = getelementptr inbounds nuw %struct.pack_list, ptr %32, i32 0, i32 0
  %34 = load ptr, ptr %33, align 8, !tbaa !30
  store ptr %34, ptr %7, align 8, !tbaa !15
  br label %14, !llvm.loop !73

35:                                               ; preds = %14
  %36 = call ptr @xmalloc(i64 noundef 40)
  store ptr %36, ptr %6, align 8, !tbaa !15
  %37 = load ptr, ptr %6, align 8, !tbaa !15
  %38 = load ptr, ptr %4, align 8, !tbaa !15
  call void @llvm.memcpy.p0.p0.i64(ptr align 8 %37, ptr align 8 %38, i64 40, i1 false)
  %39 = load ptr, ptr %4, align 8, !tbaa !15
  %40 = getelementptr inbounds nuw %struct.pack_list, ptr %39, i32 0, i32 0
  %41 = load ptr, ptr %40, align 8, !tbaa !30
  %42 = load ptr, ptr %5, align 8, !tbaa !15
  %43 = call ptr @pack_list_difference(ptr noundef %41, ptr noundef %42)
  %44 = load ptr, ptr %6, align 8, !tbaa !15
  %45 = getelementptr inbounds nuw %struct.pack_list, ptr %44, i32 0, i32 0
  store ptr %43, ptr %45, align 8, !tbaa !30
  %46 = load ptr, ptr %6, align 8, !tbaa !15
  store ptr %46, ptr %3, align 8
  store i32 1, ptr %8, align 4
  br label %47

47:                                               ; preds = %35, %25, %11
  call void @llvm.lifetime.end.p0(i64 8, ptr %7) #9
  call void @llvm.lifetime.end.p0(i64 8, ptr %6) #9
  %48 = load ptr, ptr %3, align 8
  ret ptr %48
}