; Function Attrs: nounwind uwtable
define internal fastcc noundef ptr @pack_list_difference(ptr noundef readonly %0, ptr noundef %1) unnamed_addr #0 {
  %.not23 = icmp eq ptr %0, null
  br i1 %.not23, label %common.ret30, label %.preheader.lr.ph

.preheader.lr.ph:                                 ; preds = %2
  %.not1720 = icmp eq ptr %1, null
  br i1 %.not1720, label %.preheader._crit_edge, label %.preheader

.preheader:                                       ; preds = %.preheader.lr.ph, %tailrecurse
  %.tr24 = phi ptr [ %9, %tailrecurse ], [ %0, %.preheader.lr.ph ]
  %3 = getelementptr inbounds nuw i8, ptr %.tr24, i64 8
  %4 = load ptr, ptr %3, align 8, !tbaa !74
  br label %5

5:                                                ; preds = %.preheader, %10
  %.021 = phi ptr [ %1, %.preheader ], [ %11, %10 ]
  %6 = getelementptr inbounds nuw i8, ptr %.021, i64 8
  %7 = load ptr, ptr %6, align 8, !tbaa !74
  %8 = icmp eq ptr %4, %7
  br i1 %8, label %tailrecurse, label %10

tailrecurse:                                      ; preds = %5
  %9 = load ptr, ptr %.tr24, align 8, !tbaa !30
  %.not = icmp eq ptr %9, null
  br i1 %.not, label %common.ret30, label %.preheader

10:                                               ; preds = %5
  %11 = load ptr, ptr %.021, align 8, !tbaa !30
  %.not17 = icmp eq ptr %11, null
  br i1 %.not17, label %.preheader._crit_edge, label %5, !llvm.loop !97

common.ret30:                                     ; preds = %2, %tailrecurse, %.preheader._crit_edge
  %common.ret30.op = phi ptr [ %12, %.preheader._crit_edge ], [ null, %tailrecurse ], [ null, %2 ]
  ret ptr %common.ret30.op

.preheader._crit_edge:                            ; preds = %10, %.preheader.lr.ph
  %.tr.lcssa19 = phi ptr [ %0, %.preheader.lr.ph ], [ %.tr24, %10 ]
  %12 = tail call ptr @xmalloc(i64 noundef 40) #14
  tail call void @llvm.memcpy.p0.p0.i64(ptr noundef nonnull align 8 dereferenceable(40) %12, ptr noundef nonnull align 8 dereferenceable(40) %.tr.lcssa19, i64 40, i1 false)
  %13 = load ptr, ptr %.tr.lcssa19, align 8, !tbaa !30
  %14 = tail call fastcc ptr @pack_list_difference(ptr noundef %13, ptr noundef %1)
  store ptr %14, ptr %12, align 8, !tbaa !30
  br label %common.ret30
}